; Function Attrs: mustprogress uwtable
define void @_ZN13ProfileDialog13filterChangedERK7QString(ptr noundef nonnull align 8 dereferenceable(120) %0, ptr nocapture noundef nonnull readonly align 8 dereferenceable(24) %1) #0 align 2 personality ptr @__gxx_personality_v0 {
  %3 = alloca %class.QString, align 8
  %4 = alloca %class.QModelIndex, align 8
  %5 = alloca %class.QModelIndex, align 8
  %6 = tail call noundef ptr @_ZNK7QObject6senderEv(ptr noundef nonnull align 8 dereferenceable(16) %0)
  %7 = tail call noundef ptr @_ZNK11QMetaObject4castEPK7QObject(ptr noundef nonnull align 8 dereferenceable(56) @_ZN9QComboBox16staticMetaObjectE, ptr noundef %6)
  %.not = icmp eq ptr %7, null
  %8 = tail call noundef ptr @_ZNK7QObject6senderEv(ptr noundef nonnull align 8 dereferenceable(16) %0)
  br i1 %.not, label %14, label %9

9:                                                ; preds = %2
  %10 = tail call noundef ptr @_ZNK11QMetaObject4castEPK7QObject(ptr noundef nonnull align 8 dereferenceable(56) @_ZN9QComboBox16staticMetaObjectE, ptr noundef %8)
  %11 = getelementptr inbounds i8, ptr %0, i64 112
  %12 = load ptr, ptr %11, align 8
  %13 = tail call noundef i32 @_ZNK9QComboBox12currentIndexEv(ptr noundef nonnull align 8 dereferenceable(40) %10)
  tail call void @_ZN16ProfileSortModel13setFilterTypeENS_10FilterTypeE(ptr noundef nonnull align 8 dereferenceable(48) %12, i32 noundef %13)
  br label %_ZN7QStringD2Ev.exit

14:                                               ; preds = %2
  %15 = tail call noundef ptr @_ZNK11QMetaObject4castEPK7QObject(ptr noundef nonnull align 8 dereferenceable(56) @_ZN9QLineEdit16staticMetaObjectE, ptr noundef %8)
  %.not4 = icmp eq ptr %15, null
  br i1 %.not4, label %_ZN7QStringD2Ev.exit, label %16

16:                                               ; preds = %14
  %17 = getelementptr inbounds i8, ptr %0, i64 112
  %18 = load ptr, ptr %17, align 8
  %19 = load ptr, ptr %1, align 8
  store ptr %19, ptr %3, align 8
  %20 = getelementptr inbounds i8, ptr %3, i64 8
  %21 = getelementptr inbounds i8, ptr %1, i64 8
  %22 = load ptr, ptr %21, align 8
  store ptr %22, ptr %20, align 8
  %23 = getelementptr inbounds i8, ptr %3, i64 16
  %24 = getelementptr inbounds i8, ptr %1, i64 16
  %25 = load i64, ptr %24, align 8
  store i64 %25, ptr %23, align 8
  %.not.i.i.i = icmp eq ptr %19, null
  br i1 %.not.i.i.i, label %_ZN7QStringC2ERKS_.exit, label %26

26:                                               ; preds = %16
  %27 = atomicrmw add ptr %19, i32 1 seq_cst, align 4
  br label %_ZN7QStringC2ERKS_.exit

_ZN7QStringC2ERKS_.exit:                          ; preds = %16, %26
  invoke void @_ZN16ProfileSortModel15setFilterStringE7QString(ptr noundef nonnull align 8 dereferenceable(48) %18, ptr noundef nonnull %3)
          to label %28 unwind label %33

28:                                               ; preds = %_ZN7QStringC2ERKS_.exit
  %29 = load ptr, ptr %3, align 8
  %.not.i.i.i5 = icmp eq ptr %29, null
  br i1 %.not.i.i.i5, label %_ZN7QStringD2Ev.exit, label %_ZN17QArrayDataPointerIDsE5derefEv.exit.i.i

_ZN17QArrayDataPointerIDsE5derefEv.exit.i.i:      ; preds = %28
  %30 = atomicrmw sub ptr %29, i32 1 seq_cst, align 4
  %.not.i.i = icmp eq i32 %30, 1
  br i1 %.not.i.i, label %31, label %_ZN7QStringD2Ev.exit

31:                                               ; preds = %_ZN17QArrayDataPointerIDsE5derefEv.exit.i.i
  %32 = load ptr, ptr %3, align 8
  call void @_ZN10QArrayData10deallocateEPS_xx(ptr noundef %32, i64 noundef 2, i64 noundef 8) #17
  br label %_ZN7QStringD2Ev.exit

33:                                               ; preds = %_ZN7QStringC2ERKS_.exit
  %34 = landingpad { ptr, i32 }
          cleanup
  %35 = load ptr, ptr %3, align 8
  %.not.i.i.i6 = icmp eq ptr %35, null
  br i1 %.not.i.i.i6, label %_ZN7QStringD2Ev.exit9, label %_ZN17QArrayDataPointerIDsE5derefEv.exit.i.i7

_ZN17QArrayDataPointerIDsE5derefEv.exit.i.i7:     ; preds = %33
  %36 = atomicrmw sub ptr %35, i32 1 seq_cst, align 4
  %.not.i.i8 = icmp eq i32 %36, 1
  br i1 %.not.i.i8, label %37, label %_ZN7QStringD2Ev.exit9

37:                                               ; preds = %_ZN17QArrayDataPointerIDsE5derefEv.exit.i.i7
  %38 = load ptr, ptr %3, align 8
  call void @_ZN10QArrayData10deallocateEPS_xx(ptr noundef %38, i64 noundef 2, i64 noundef 8) #17
  br label %_ZN7QStringD2Ev.exit9

_ZN7QStringD2Ev.exit9:                            ; preds = %33, %_ZN17QArrayDataPointerIDsE5derefEv.exit.i.i7, %37
  resume { ptr, i32 } %34

_ZN7QStringD2Ev.exit:                             ; preds = %31, %_ZN17QArrayDataPointerIDsE5derefEv.exit.i.i, %28, %14, %9
  %39 = getelementptr inbounds i8, ptr %0, i64 64
  %40 = load ptr, ptr %39, align 8
  %41 = getelementptr inbounds i8, ptr %40, i64 32
  %42 = load ptr, ptr %41, align 8
  call void @_ZN9QTreeView22resizeColumnToContentsEi(ptr noundef nonnull align 8 dereferenceable(40) %42, i32 noundef 0)
  %43 = getelementptr inbounds i8, ptr %0, i64 112
  %44 = load ptr, ptr %43, align 8
  %45 = getelementptr inbounds i8, ptr %0, i64 104
  %46 = load ptr, ptr %45, align 8
  call void @_ZNK12ProfileModel13activeProfileEv(ptr dead_on_unwind nonnull writable sret(%class.QModelIndex) align 8 %5, ptr noundef nonnull align 8 dereferenceable(104) %46)
  %47 = load ptr, ptr %44, align 8
  %48 = getelementptr inbounds i8, ptr %47, i64 408
  %49 = load ptr, ptr %48, align 8
  call void %49(ptr dead_on_unwind nonnull writable sret(%class.QModelIndex) align 8 %4, ptr noundef nonnull align 8 dereferenceable(16) %44, ptr noundef nonnull align 8 dereferenceable(24) %5)
  %50 = load i32, ptr %4, align 8
  %51 = icmp sgt i32 %50, -1
  %52 = getelementptr inbounds i8, ptr %4, i64 4
  %53 = load i32, ptr %52, align 4
  %54 = icmp sgt i32 %53, -1
  %or.cond.i = select i1 %51, i1 %54, i1 false
  %55 = getelementptr inbounds i8, ptr %4, i64 16
  %56 = load ptr, ptr %55, align 8
  %57 = icmp ne ptr %56, null
  %or.cond = select i1 %or.cond.i, i1 %57, i1 false
  br i1 %or.cond, label %58, label %_ZNK11QModelIndex7isValidEv.exit.thread

58:                                               ; preds = %_ZN7QStringD2Ev.exit
  %59 = load ptr, ptr %39, align 8
  %60 = getelementptr inbounds i8, ptr %59, i64 32
  %61 = load ptr, ptr %60, align 8
  call void @_ZN17QAbstractItemView15setCurrentIndexERK11QModelIndex(ptr noundef nonnull align 8 dereferenceable(40) %61, ptr noundef nonnull align 8 dereferenceable(24) %4)
  br label %_ZNK11QModelIndex7isValidEv.exit.thread

_ZNK11QModelIndex7isValidEv.exit.thread:          ; preds = %_ZN7QStringD2Ev.exit, %58
  ret void
}